target datalayout = "e-m:e-p270:32:32-p271:32:32-p272:64:64-i64:64-i128:128-f80:128-n8:16:32:64-S128"
target triple = "x86_64-pc-linux-gnu"

%struct.gz_state = type { i32, i32, ptr, i64, i32, i32, ptr, ptr, ptr, i32, i32, i64, i64, i32, i32, i32, i32, i64, i32, i32, ptr, %struct.z_stream_s }
%struct.z_stream_s = type { ptr, i32, i64, ptr, i32, i64, ptr, ptr, ptr, ptr, ptr, i32, i64, i64 }

@.str.2 = private unnamed_addr constant [23 x i8] c"unexpected end of file\00", align 1
@.str.3 = private unnamed_addr constant [39 x i8] c"internal error: inflate stream corrupt\00", align 1
@.str.4 = private unnamed_addr constant [14 x i8] c"out of memory\00", align 1
@.str.5 = private unnamed_addr constant [22 x i8] c"compressed data error\00", align 1
@.str.6 = private unnamed_addr constant [21 x i8] c"incorrect data check\00", align 1
@.str.7 = private unnamed_addr constant [23 x i8] c"incorrect length check\00", align 1

; Function Attrs: nounwind uwtable
define internal i32 @gz_load(ptr noundef %0, ptr noundef %1, i32 noundef %2, ptr noundef %3) #0 {
  %5 = alloca i32, align 4
  %6 = alloca ptr, align 8
  %7 = alloca ptr, align 8
  %8 = alloca i32, align 4
  %9 = alloca ptr, align 8
  %10 = alloca i32, align 4
  %11 = alloca i32, align 4
  store ptr %0, ptr %6, align 8, !tbaa !3
  store ptr %1, ptr %7, align 8, !tbaa !35
  store i32 %2, ptr %8, align 4, !tbaa !7
  store ptr %3, ptr %9, align 8, !tbaa !36
  call void @llvm.lifetime.start.p0(i64 4, ptr %10) #8
  %12 = load ptr, ptr %9, align 8, !tbaa !36
  store i32 0, ptr %12, align 4, !tbaa !7
  br label %13

13:                                               ; preds = %37, %4
  %14 = load ptr, ptr %6, align 8, !tbaa !3
  %15 = getelementptr inbounds nuw %struct.gz_state, ptr %14, i32 0, i32 1
  %16 = load i32, ptr %15, align 4, !tbaa !38
  %17 = load ptr, ptr %7, align 8, !tbaa !35
  %18 = load ptr, ptr %9, align 8, !tbaa !36
  %19 = load i32, ptr %18, align 4, !tbaa !7
  %20 = zext i32 %19 to i64
  %21 = getelementptr inbounds nuw i8, ptr %17, i64 %20
  %22 = load i32, ptr %8, align 4, !tbaa !7
  %23 = load ptr, ptr %9, align 8, !tbaa !36
  %24 = load i32, ptr %23, align 4, !tbaa !7
  %25 = sub i32 %22, %24
  %26 = zext i32 %25 to i64
  %27 = call i64 @read(i32 noundef %16, ptr noundef %21, i64 noundef %26)
  %28 = trunc i64 %27 to i32
  store i32 %28, ptr %10, align 4, !tbaa !7
  %29 = load i32, ptr %10, align 4, !tbaa !7
  %30 = icmp sle i32 %29, 0
  br i1 %30, label %31, label %32

31:                                               ; preds = %13
  br label %42

32:                                               ; preds = %13
  %33 = load i32, ptr %10, align 4, !tbaa !7
  %34 = load ptr, ptr %9, align 8, !tbaa !36
  %35 = load i32, ptr %34, align 4, !tbaa !7
  %36 = add i32 %35, %33
  store i32 %36, ptr %34, align 4, !tbaa !7
  br label %37

37:                                               ; preds = %32
  %38 = load ptr, ptr %9, align 8, !tbaa !36
  %39 = load i32, ptr %38, align 4, !tbaa !7
  %40 = load i32, ptr %8, align 4, !tbaa !7
  %41 = icmp ult i32 %39, %40
  br i1 %41, label %13, label %42, !llvm.loop !39

42:                                               ; preds = %37, %31
  %43 = load i32, ptr %10, align 4, !tbaa !7
  %44 = icmp slt i32 %43, 0
  br i1 %44, label %45, label %50

45:                                               ; preds = %42
  %46 = load ptr, ptr %6, align 8, !tbaa !3
  %47 = call ptr @__errno_location() #9
  %48 = load i32, ptr %47, align 4, !tbaa !7
  %49 = call ptr @strerror(i32 noundef %48) #8
  call void @gz_error(ptr noundef %46, i32 noundef -1, ptr noundef %49)
  store i32 -1, ptr %5, align 4
  store i32 1, ptr %11, align 4
  br label %57

50:                                               ; preds = %42
  %51 = load i32, ptr %10, align 4, !tbaa !7
  %52 = icmp eq i32 %51, 0
  br i1 %52, label %53, label %56

53:                                               ; preds = %50
  %54 = load ptr, ptr %6, align 8, !tbaa !3
  %55 = getelementptr inbounds nuw %struct.gz_state, ptr %54, i32 0, i32 10
  store i32 1, ptr %55, align 4, !tbaa !22
  br label %56

56:                                               ; preds = %53, %50
  store i32 0, ptr %5, align 4
  store i32 1, ptr %11, align 4
  br label %57

57:                                               ; preds = %56, %45
  call void @llvm.lifetime.end.p0(i64 4, ptr %10) #8
  %58 = load i32, ptr %5, align 4
  ret i32 %58
}

; Function Attrs: nounwind uwtable
define internal i32 @gz_avail(ptr noundef %0) #0 {
  %2 = alloca i32, align 4
  %3 = alloca ptr, align 8
  %4 = alloca ptr, align 8
  %5 = alloca i32, align 4
  store ptr %0, ptr %3, align 8, !tbaa !3
  call void @llvm.lifetime.start.p0(i64 8, ptr %4) #8
  %6 = load ptr, ptr %3, align 8, !tbaa !3
  %7 = getelementptr inbounds nuw %struct.gz_state, ptr %6, i32 0, i32 21
  store ptr %7, ptr %4, align 8, !tbaa !9
  %8 = load ptr, ptr %3, align 8, !tbaa !3
  %9 = getelementptr inbounds nuw %struct.gz_state, ptr %8, i32 0, i32 19
  %10 = load i32, ptr %9, align 4, !tbaa !17
  %11 = icmp ne i32 %10, 0
  br i1 %11, label %12, label %13

12:                                               ; preds = %1
  store i32 -1, ptr %2, align 4
  store i32 1, ptr %5, align 4
  br label %38

13:                                               ; preds = %1
  %14 = load ptr, ptr %3, align 8, !tbaa !3
  %15 = getelementptr inbounds nuw %struct.gz_state, ptr %14, i32 0, i32 10
  %16 = load i32, ptr %15, align 4, !tbaa !22
  %17 = icmp eq i32 %16, 0
  br i1 %17, label %18, label %37

18:                                               ; preds = %13
  %19 = load ptr, ptr %3, align 8, !tbaa !3
  %20 = load ptr, ptr %3, align 8, !tbaa !3
  %21 = getelementptr inbounds nuw %struct.gz_state, ptr %20, i32 0, i32 6
  %22 = load ptr, ptr %21, align 8, !tbaa !49
  %23 = load ptr, ptr %3, align 8, !tbaa !3
  %24 = getelementptr inbounds nuw %struct.gz_state, ptr %23, i32 0, i32 4
  %25 = load i32, ptr %24, align 8, !tbaa !25
  %26 = load ptr, ptr %4, align 8, !tbaa !9
  %27 = getelementptr inbounds nuw %struct.z_stream_s, ptr %26, i32 0, i32 1
  %28 = call i32 @gz_load(ptr noundef %19, ptr noundef %22, i32 noundef %25, ptr noundef %27)
  %29 = icmp eq i32 %28, -1
  br i1 %29, label %30, label %31

30:                                               ; preds = %18
  store i32 -1, ptr %2, align 4
  store i32 1, ptr %5, align 4
  br label %38

31:                                               ; preds = %18
  %32 = load ptr, ptr %3, align 8, !tbaa !3
  %33 = getelementptr inbounds nuw %struct.gz_state, ptr %32, i32 0, i32 6
  %34 = load ptr, ptr %33, align 8, !tbaa !49
  %35 = load ptr, ptr %4, align 8, !tbaa !9
  %36 = getelementptr inbounds nuw %struct.z_stream_s, ptr %35, i32 0, i32 0
  store ptr %34, ptr %36, align 8, !tbaa !54
  br label %37

37:                                               ; preds = %31, %13
  store i32 0, ptr %2, align 4
  store i32 1, ptr %5, align 4
  br label %38

38:                                               ; preds = %37, %30, %12
  call void @llvm.lifetime.end.p0(i64 8, ptr %4) #8
  %39 = load i32, ptr %2, align 4
  ret i32 %39
}

; Function Attrs: nounwind uwtable
define internal i32 @gz_decomp(ptr noundef %0) #0 {
  %2 = alloca i32, align 4
  %3 = alloca ptr, align 8
  %4 = alloca i32, align 4
  %5 = alloca i32, align 4
  %6 = alloca i64, align 8
  %7 = alloca i64, align 8
  %8 = alloca ptr, align 8
  %9 = alloca i32, align 4
  store ptr %0, ptr %3, align 8, !tbaa !3
  call void @llvm.lifetime.start.p0(i64 4, ptr %4) #8
  call void @llvm.lifetime.start.p0(i64 4, ptr %5) #8
  call void @llvm.lifetime.start.p0(i64 8, ptr %6) #8
  call void @llvm.lifetime.start.p0(i64 8, ptr %7) #8
  call void @llvm.lifetime.start.p0(i64 8, ptr %8) #8
  %10 = load ptr, ptr %3, align 8, !tbaa !3
  %11 = getelementptr inbounds nuw %struct.gz_state, ptr %10, i32 0, i32 21
  store ptr %11, ptr %8, align 8, !tbaa !9
  %12 = load ptr, ptr %8, align 8, !tbaa !9
  %13 = getelementptr inbounds nuw %struct.z_stream_s, ptr %12, i32 0, i32 4
  %14 = load i32, ptr %13, align 8, !tbaa !26
  store i32 %14, ptr %5, align 4, !tbaa !7
  br label %15

15:                                               ; preds = %72, %1
  %16 = load ptr, ptr %8, align 8, !tbaa !9
  %17 = getelementptr inbounds nuw %struct.z_stream_s, ptr %16, i32 0, i32 1
  %18 = load i32, ptr %17, align 8, !tbaa !23
  %19 = icmp eq i32 %18, 0
  br i1 %19, label %20, label %25

20:                                               ; preds = %15
  %21 = load ptr, ptr %3, align 8, !tbaa !3
  %22 = call i32 @gz_avail(ptr noundef %21)
  %23 = icmp eq i32 %22, -1
  br i1 %23, label %24, label %25

24:                                               ; preds = %20
  store i32 -1, ptr %2, align 4
  store i32 1, ptr %9, align 4
  br label %138

25:                                               ; preds = %20, %15
  %26 = load ptr, ptr %8, align 8, !tbaa !9
  %27 = getelementptr inbounds nuw %struct.z_stream_s, ptr %26, i32 0, i32 1
  %28 = load i32, ptr %27, align 8, !tbaa !23
  %29 = icmp eq i32 %28, 0
  br i1 %29, label %30, label %32

30:                                               ; preds = %25
  %31 = load ptr, ptr %3, align 8, !tbaa !3
  call void @gz_error(ptr noundef %31, i32 noundef -3, ptr noundef @.str.2)
  store i32 -1, ptr %2, align 4
  store i32 1, ptr %9, align 4
  br label %138

32:                                               ; preds = %25
  %33 = load ptr, ptr %8, align 8, !tbaa !9
  %34 = call i32 @inflate(ptr noundef %33, i32 noundef 0)
  store i32 %34, ptr %4, align 4, !tbaa !7
  %35 = load i32, ptr %4, align 4, !tbaa !7
  %36 = icmp eq i32 %35, -2
  br i1 %36, label %40, label %37

37:                                               ; preds = %32
  %38 = load i32, ptr %4, align 4, !tbaa !7
  %39 = icmp eq i32 %38, 2
  br i1 %39, label %40, label %42

40:                                               ; preds = %37, %32
  %41 = load ptr, ptr %3, align 8, !tbaa !3
  call void @gz_error(ptr noundef %41, i32 noundef -2, ptr noundef @.str.3)
  store i32 -1, ptr %2, align 4
  store i32 1, ptr %9, align 4
  br label %138

42:                                               ; preds = %37
  %43 = load i32, ptr %4, align 4, !tbaa !7
  %44 = icmp eq i32 %43, -4
  br i1 %44, label %45, label %47

45:                                               ; preds = %42
  %46 = load ptr, ptr %3, align 8, !tbaa !3
  call void @gz_error(ptr noundef %46, i32 noundef -4, ptr noundef @.str.4)
  store i32 -1, ptr %2, align 4
  store i32 1, ptr %9, align 4
  br label %138

47:                                               ; preds = %42
  %48 = load i32, ptr %4, align 4, !tbaa !7
  %49 = icmp eq i32 %48, -3
  br i1 %49, label %50, label %63

50:                                               ; preds = %47
  %51 = load ptr, ptr %3, align 8, !tbaa !3
  %52 = load ptr, ptr %8, align 8, !tbaa !9
  %53 = getelementptr inbounds nuw %struct.z_stream_s, ptr %52, i32 0, i32 6
  %54 = load ptr, ptr %53, align 8, !tbaa !40
  %55 = icmp eq ptr %54, null
  br i1 %55, label %56, label %57

56:                                               ; preds = %50
  br label %61

57:                                               ; preds = %50
  %58 = load ptr, ptr %8, align 8, !tbaa !9
  %59 = getelementptr inbounds nuw %struct.z_stream_s, ptr %58, i32 0, i32 6
  %60 = load ptr, ptr %59, align 8, !tbaa !40
  br label %61

61:                                               ; preds = %57, %56
  %62 = phi ptr [ @.str.5, %56 ], [ %60, %57 ]
  call void @gz_error(ptr noundef %51, i32 noundef -3, ptr noundef %62)
  store i32 -1, ptr %2, align 4
  store i32 1, ptr %9, align 4
  br label %138

63:                                               ; preds = %47
  br label %64

64:                                               ; preds = %63
  %65 = load ptr, ptr %8, align 8, !tbaa !9
  %66 = getelementptr inbounds nuw %struct.z_stream_s, ptr %65, i32 0, i32 4
  %67 = load i32, ptr %66, align 8, !tbaa !26
  %68 = icmp ne i32 %67, 0
  br i1 %68, label %69, label %72

69:                                               ; preds = %64
  %70 = load i32, ptr %4, align 4, !tbaa !7
  %71 = icmp ne i32 %70, 1
  br label %72

72:                                               ; preds = %69, %64
  %73 = phi i1 [ false, %64 ], [ %71, %69 ]
  br i1 %73, label %15, label %74, !llvm.loop !41

74:                                               ; preds = %72
  %75 = load i32, ptr %5, align 4, !tbaa !7
  %76 = load ptr, ptr %8, align 8, !tbaa !9
  %77 = getelementptr inbounds nuw %struct.z_stream_s, ptr %76, i32 0, i32 4
  %78 = load i32, ptr %77, align 8, !tbaa !26
  %79 = sub i32 %75, %78
  %80 = load ptr, ptr %3, align 8, !tbaa !3
  %81 = getelementptr inbounds nuw %struct.gz_state, ptr %80, i32 0, i32 9
  store i32 %79, ptr %81, align 8, !tbaa !20
  %82 = load ptr, ptr %8, align 8, !tbaa !9
  %83 = getelementptr inbounds nuw %struct.z_stream_s, ptr %82, i32 0, i32 3
  %84 = load ptr, ptr %83, align 8, !tbaa !27
  %85 = load ptr, ptr %3, align 8, !tbaa !3
  %86 = getelementptr inbounds nuw %struct.gz_state, ptr %85, i32 0, i32 9
  %87 = load i32, ptr %86, align 8, !tbaa !20
  %88 = zext i32 %87 to i64
  %89 = sub i64 0, %88
  %90 = getelementptr inbounds i8, ptr %84, i64 %89
  %91 = load ptr, ptr %3, align 8, !tbaa !3
  %92 = getelementptr inbounds nuw %struct.gz_state, ptr %91, i32 0, i32 8
  store ptr %90, ptr %92, align 8, !tbaa !21
  %93 = load ptr, ptr %8, align 8, !tbaa !9
  %94 = getelementptr inbounds nuw %struct.z_stream_s, ptr %93, i32 0, i32 12
  %95 = load i64, ptr %94, align 8, !tbaa !42
  %96 = load ptr, ptr %3, align 8, !tbaa !3
  %97 = getelementptr inbounds nuw %struct.gz_state, ptr %96, i32 0, i32 8
  %98 = load ptr, ptr %97, align 8, !tbaa !21
  %99 = load ptr, ptr %3, align 8, !tbaa !3
  %100 = getelementptr inbounds nuw %struct.gz_state, ptr %99, i32 0, i32 9
  %101 = load i32, ptr %100, align 8, !tbaa !20
  %102 = call i64 @crc32(i64 noundef %95, ptr noundef %98, i32 noundef %101)
  %103 = load ptr, ptr %8, align 8, !tbaa !9
  %104 = getelementptr inbounds nuw %struct.z_stream_s, ptr %103, i32 0, i32 12
  store i64 %102, ptr %104, align 8, !tbaa !42
  %105 = load i32, ptr %4, align 4, !tbaa !7
  %106 = icmp eq i32 %105, 1
  br i1 %106, label %107, label %137

107:                                              ; preds = %74
  %108 = load ptr, ptr %3, align 8, !tbaa !3
  %109 = call i32 @gz_next4(ptr noundef %108, ptr noundef %6)
  %110 = icmp eq i32 %109, -1
  br i1 %110, label %115, label %111

111:                                              ; preds = %107
  %112 = load ptr, ptr %3, align 8, !tbaa !3
  %113 = call i32 @gz_next4(ptr noundef %112, ptr noundef %7)
  %114 = icmp eq i32 %113, -1
  br i1 %114, label %115, label %117

115:                                              ; preds = %111, %107
  %116 = load ptr, ptr %3, align 8, !tbaa !3
  call void @gz_error(ptr noundef %116, i32 noundef -3, ptr noundef @.str.2)
  store i32 -1, ptr %2, align 4
  store i32 1, ptr %9, align 4
  br label %138

117:                                              ; preds = %111
  %118 = load i64, ptr %6, align 8, !tbaa !31
  %119 = load ptr, ptr %8, align 8, !tbaa !9
  %120 = getelementptr inbounds nuw %struct.z_stream_s, ptr %119, i32 0, i32 12
  %121 = load i64, ptr %120, align 8, !tbaa !42
  %122 = icmp ne i64 %118, %121
  br i1 %122, label %123, label %125

123:                                              ; preds = %117
  %124 = load ptr, ptr %3, align 8, !tbaa !3
  call void @gz_error(ptr noundef %124, i32 noundef -3, ptr noundef @.str.6)
  store i32 -1, ptr %2, align 4
  store i32 1, ptr %9, align 4
  br label %138

125:                                              ; preds = %117
  %126 = load i64, ptr %7, align 8, !tbaa !31
  %127 = load ptr, ptr %8, align 8, !tbaa !9
  %128 = getelementptr inbounds nuw %struct.z_stream_s, ptr %127, i32 0, i32 5
  %129 = load i64, ptr %128, align 8, !tbaa !43
  %130 = and i64 %129, 4294967295
  %131 = icmp ne i64 %126, %130
  br i1 %131, label %132, label %134

132:                                              ; preds = %125
  %133 = load ptr, ptr %3, align 8, !tbaa !3
  call void @gz_error(ptr noundef %133, i32 noundef -3, ptr noundef @.str.7)
  store i32 -1, ptr %2, align 4
  store i32 1, ptr %9, align 4
  br label %138

134:                                              ; preds = %125
  %135 = load ptr, ptr %3, align 8, !tbaa !3
  %136 = getelementptr inbounds nuw %struct.gz_state, ptr %135, i32 0, i32 13
  store i32 0, ptr %136, align 8, !tbaa !24
  br label %137

137:                                              ; preds = %134, %74
  store i32 0, ptr %2, align 4
  store i32 1, ptr %9, align 4
  br label %138

138:                                              ; preds = %137, %132, %123, %115, %61, %45, %40, %30, %24
  call void @llvm.lifetime.end.p0(i64 8, ptr %8) #8
  call void @llvm.lifetime.end.p0(i64 8, ptr %7) #8
  call void @llvm.lifetime.end.p0(i64 8, ptr %6) #8
  call void @llvm.lifetime.end.p0(i64 4, ptr %5) #8
  call void @llvm.lifetime.end.p0(i64 4, ptr %4) #8
  %139 = load i32, ptr %2, align 4
  ret i32 %139
}