; Function Attrs: nounwind uwtable
define internal fastcc range(i32 -1, 1) i32 @gz_decomp(ptr noundef nonnull %0) unnamed_addr #0 {
  %2 = alloca i64, align 8
  %3 = alloca i64, align 8
  call void @llvm.lifetime.start.p0(i64 8, ptr nonnull %2) #12
  call void @llvm.lifetime.start.p0(i64 8, ptr nonnull %3) #12
  %4 = getelementptr inbounds nuw i8, ptr %0, i64 120
  %5 = getelementptr inbounds nuw i8, ptr %0, i64 152
  %6 = load i32, ptr %5, align 8, !tbaa !29
  %7 = getelementptr inbounds nuw i8, ptr %0, i64 128
  %8 = getelementptr inbounds nuw i8, ptr %0, i64 108
  %9 = getelementptr inbounds nuw i8, ptr %0, i64 60
  %10 = getelementptr inbounds nuw i8, ptr %0, i64 32
  %11 = getelementptr inbounds nuw i8, ptr %0, i64 24
  %12 = getelementptr inbounds nuw i8, ptr %0, i64 4
  br label %13

13:                                               ; preds = %53, %1
  %14 = load i32, ptr %7, align 8, !tbaa !23
  %15 = icmp eq i32 %14, 0
  br i1 %15, label %16, label %gz_avail.exit.thread42

16:                                               ; preds = %13
  %17 = load i32, ptr %8, align 4, !tbaa !13
  %.not.i = icmp eq i32 %17, 0
  br i1 %.not.i, label %18, label %gz_avail.exit.thread

18:                                               ; preds = %16
  %19 = load i32, ptr %9, align 4, !tbaa !19
  %20 = icmp eq i32 %19, 0
  br i1 %20, label %21, label %gz_avail.exit.thread57

21:                                               ; preds = %18
  %22 = load ptr, ptr %10, align 8, !tbaa !33
  %23 = load i32, ptr %11, align 8, !tbaa !25
  store i32 0, ptr %7, align 4, !tbaa !28
  br label %24

24:                                               ; preds = %34, %21
  %25 = phi i32 [ %36, %34 ], [ 0, %21 ]
  %26 = load i32, ptr %12, align 4, !tbaa !26
  %27 = zext i32 %25 to i64
  %28 = getelementptr inbounds nuw i8, ptr %22, i64 %27
  %29 = sub i32 %23, %25
  %30 = zext i32 %29 to i64
  %31 = tail call i64 @read(i32 noundef %26, ptr noundef %28, i64 noundef %30) #12
  %32 = trunc i64 %31 to i32
  %33 = icmp slt i32 %32, 1
  br i1 %33, label %38, label %34

34:                                               ; preds = %24
  %35 = load i32, ptr %7, align 4, !tbaa !28
  %36 = add i32 %35, %32
  store i32 %36, ptr %7, align 4, !tbaa !28
  %37 = icmp ult i32 %36, %23
  br i1 %37, label %24, label %gz_avail.exit, !llvm.loop !27

38:                                               ; preds = %24
  %39 = icmp slt i32 %32, 0
  br i1 %39, label %gz_load.exit.i, label %40

40:                                               ; preds = %38
  store i32 1, ptr %9, align 4, !tbaa !19
  %.pr.pre.pre = load i32, ptr %7, align 8, !tbaa !23
  br label %gz_avail.exit

gz_load.exit.i:                                   ; preds = %38
  %41 = tail call ptr @__errno_location() #13
  %42 = load i32, ptr %41, align 4, !tbaa !28
  %43 = tail call ptr @strerror(i32 noundef %42) #12
  tail call void @gz_error(ptr noundef nonnull %0, i32 noundef -1, ptr noundef %43) #12
  br label %gz_avail.exit.thread

gz_avail.exit:                                    ; preds = %34, %40
  %.pr.pre = phi i32 [ %.pr.pre.pre, %40 ], [ %36, %34 ]
  %44 = load ptr, ptr %10, align 8, !tbaa !33
  store ptr %44, ptr %4, align 8, !tbaa !34
  %45 = icmp eq i32 %.pr.pre, 0
  br i1 %45, label %gz_avail.exit.thread57, label %gz_avail.exit.thread42

gz_avail.exit.thread57:                           ; preds = %18, %gz_avail.exit
  tail call void @gz_error(ptr noundef nonnull %0, i32 noundef -3, ptr noundef nonnull @.str.2) #12
  br label %gz_avail.exit.thread

gz_avail.exit.thread42:                           ; preds = %13, %gz_avail.exit
  %46 = tail call i32 @inflate(ptr noundef nonnull %4, i32 noundef 0) #12
  switch i32 %46, label %53 [
    i32 -2, label %47
    i32 2, label %47
    i32 -4, label %48
    i32 -3, label %49
  ]

47:                                               ; preds = %gz_avail.exit.thread42, %gz_avail.exit.thread42
  tail call void @gz_error(ptr noundef nonnull %0, i32 noundef -2, ptr noundef nonnull @.str.3) #12
  br label %gz_avail.exit.thread

48:                                               ; preds = %gz_avail.exit.thread42
  tail call void @gz_error(ptr noundef nonnull %0, i32 noundef -4, ptr noundef nonnull @.str.4) #12
  br label %gz_avail.exit.thread

49:                                               ; preds = %gz_avail.exit.thread42
  %50 = getelementptr inbounds nuw i8, ptr %0, i64 168
  %51 = load ptr, ptr %50, align 8, !tbaa !35
  %52 = icmp eq ptr %51, null
  %spec.select = select i1 %52, ptr @.str.5, ptr %51
  tail call void @gz_error(ptr noundef nonnull %0, i32 noundef -3, ptr noundef nonnull %spec.select) #12
  br label %gz_avail.exit.thread

53:                                               ; preds = %gz_avail.exit.thread42
  %54 = load i32, ptr %5, align 8, !tbaa !29
  %55 = icmp ne i32 %54, 0
  %56 = icmp ne i32 %46, 1
  %57 = and i1 %56, %55
  br i1 %57, label %13, label %58, !llvm.loop !36

58:                                               ; preds = %53
  %59 = sub i32 %6, %54
  %60 = getelementptr inbounds nuw i8, ptr %0, i64 56
  store i32 %59, ptr %60, align 8, !tbaa !16
  %61 = getelementptr inbounds nuw i8, ptr %0, i64 144
  %62 = load ptr, ptr %61, align 8, !tbaa !30
  %63 = zext i32 %59 to i64
  %64 = sub nsw i64 0, %63
  %65 = getelementptr inbounds i8, ptr %62, i64 %64
  %66 = getelementptr inbounds nuw i8, ptr %0, i64 48
  store ptr %65, ptr %66, align 8, !tbaa !17
  %67 = getelementptr inbounds nuw i8, ptr %0, i64 216
  %68 = load i64, ptr %67, align 8, !tbaa !37
  %69 = tail call i64 @crc32(i64 noundef %68, ptr noundef %65, i32 noundef %59) #12
  store i64 %69, ptr %67, align 8, !tbaa !37
  %70 = icmp eq i32 %46, 1
  br i1 %70, label %71, label %gz_avail.exit.thread

71:                                               ; preds = %58
  %72 = call fastcc i32 @gz_next4(ptr noundef %0, ptr noundef %2)
  %73 = icmp eq i32 %72, -1
  br i1 %73, label %77, label %74

74:                                               ; preds = %71
  %75 = call fastcc i32 @gz_next4(ptr noundef %0, ptr noundef %3)
  %76 = icmp eq i32 %75, -1
  br i1 %76, label %77, label %78

77:                                               ; preds = %74, %71
  tail call void @gz_error(ptr noundef nonnull %0, i32 noundef -3, ptr noundef nonnull @.str.2) #12
  br label %gz_avail.exit.thread

78:                                               ; preds = %74
  %79 = load i64, ptr %2, align 8, !tbaa !38
  %80 = load i64, ptr %67, align 8, !tbaa !37
  %.not = icmp eq i64 %79, %80
  br i1 %.not, label %82, label %81

81:                                               ; preds = %78
  tail call void @gz_error(ptr noundef nonnull %0, i32 noundef -3, ptr noundef nonnull @.str.6) #12
  br label %gz_avail.exit.thread

82:                                               ; preds = %78
  %83 = load i64, ptr %3, align 8, !tbaa !38
  %84 = getelementptr inbounds nuw i8, ptr %0, i64 160
  %85 = load i64, ptr %84, align 8, !tbaa !39
  %86 = and i64 %85, 4294967295
  %.not40 = icmp eq i64 %83, %86
  br i1 %.not40, label %88, label %87

87:                                               ; preds = %82
  tail call void @gz_error(ptr noundef nonnull %0, i32 noundef -3, ptr noundef nonnull @.str.7) #12
  br label %gz_avail.exit.thread

88:                                               ; preds = %82
  %89 = getelementptr inbounds nuw i8, ptr %0, i64 80
  store i32 0, ptr %89, align 8, !tbaa !24
  br label %gz_avail.exit.thread

gz_avail.exit.thread:                             ; preds = %16, %gz_load.exit.i, %58, %88, %87, %81, %77, %49, %48, %47, %gz_avail.exit.thread57
  %.0 = phi i32 [ -1, %gz_avail.exit.thread57 ], [ -1, %47 ], [ -1, %48 ], [ -1, %49 ], [ -1, %77 ], [ -1, %81 ], [ -1, %87 ], [ 0, %88 ], [ 0, %58 ], [ -1, %gz_load.exit.i ], [ -1, %16 ]
  call void @llvm.lifetime.end.p0(i64 8, ptr nonnull %3) #12
  call void @llvm.lifetime.end.p0(i64 8, ptr nonnull %2) #12
  ret i32 %.0
}